; Function Attrs: nounwind uwtable
define hidden void @_glfwRestoreWindowNull(ptr noundef %0) local_unnamed_addr #0 {
  %2 = getelementptr inbounds nuw i8, ptr %0, i64 3388
  %3 = load i32, ptr %2, align 4, !tbaa !153
  %.not = icmp eq i32 %3, 0
  br i1 %.not, label %8, label %4

4:                                                ; preds = %1
  store i32 0, ptr %2, align 4, !tbaa !153
  tail call void @_glfwInputWindowIconify(ptr noundef nonnull %0, i32 noundef 0) #11
  %5 = getelementptr inbounds nuw i8, ptr %0, i64 80
  %6 = load ptr, ptr %5, align 8, !tbaa !3
  %.not9 = icmp eq ptr %6, null
  br i1 %.not9, label %12, label %7

7:                                                ; preds = %4
  tail call void @_glfwInputMonitorWindow(ptr noundef nonnull %6, ptr noundef nonnull %0) #11
  br label %12

8:                                                ; preds = %1
  %9 = getelementptr inbounds nuw i8, ptr %0, i64 3392
  %10 = load i32, ptr %9, align 8, !tbaa !69
  %.not8 = icmp eq i32 %10, 0
  br i1 %.not8, label %12, label %11

11:                                               ; preds = %8
  store i32 0, ptr %9, align 8, !tbaa !69
  tail call void @_glfwInputWindowMaximize(ptr noundef nonnull %0, i32 noundef 0) #11
  br label %12

12:                                               ; preds = %8, %11, %4, %7
  ret void
}